target datalayout = "e-m:e-p270:32:32-p271:32:32-p272:64:64-i64:64-i128:128-f80:128-n8:16:32:64-S128"
target triple = "x86_64-pc-linux-gnu"

%class.ptr_vector = type { %class.vector }
%class.vector = type { ptr }
%"struct.mbp::term_graph::add_deq_proc" = type { i32 }
%"class.mbp::term" = type { %class.obj_ref, ptr, ptr, ptr, i16, %class.ptr_vector, %class.ptr_vector, %"struct.mbp::term::class_props" }
%class.obj_ref = type { ptr, ptr }
%"struct.mbp::term::class_props" = type { i8, i32, %class.bit_vector }
%class.bit_vector = type { i32, i32, ptr }

; Function Attrs: mustprogress nounwind uwtable
define linkonce_odr hidden noundef nonnull align 4 dereferenceable(4) ptr @_ZN10bit_vector12get_bit_wordEj(ptr noundef nonnull align 8 dereferenceable(16) %0, i32 noundef %1) #6 comdat align 2 {
  %3 = alloca ptr, align 8
  %4 = alloca i32, align 4
  store ptr %0, ptr %3, align 8, !tbaa !25
  store i32 %1, ptr %4, align 4, !tbaa !27
  %5 = load ptr, ptr %3, align 8
  %6 = getelementptr inbounds nuw %class.bit_vector, ptr %5, i32 0, i32 2
  %7 = load ptr, ptr %6, align 8, !tbaa !424
  %8 = load i32, ptr %4, align 4, !tbaa !27
  %9 = udiv i32 %8, 32
  %10 = zext i32 %9 to i64
  %11 = getelementptr inbounds nuw i32, ptr %7, i64 %10
  ret ptr %11
}

; Function Attrs: mustprogress nounwind uwtable
define linkonce_odr hidden noundef i32 @_ZN10bit_vector12get_pos_maskEj(i32 noundef %0) #6 comdat align 2 {
  %2 = alloca i32, align 4
  store i32 %0, ptr %2, align 4, !tbaa !27
  %3 = load i32, ptr %2, align 4, !tbaa !27
  %4 = urem i32 %3, 32
  %5 = shl i32 1, %4
  ret i32 %5
}

; Function Attrs: mustprogress uwtable
define linkonce_odr hidden void @_ZN10bit_vector3setEj(ptr noundef nonnull align 8 dereferenceable(16) %0, i32 noundef %1) #4 comdat align 2 {
  %3 = alloca ptr, align 8
  %4 = alloca i32, align 4
  store ptr %0, ptr %3, align 8, !tbaa !25
  store i32 %1, ptr %4, align 4, !tbaa !27
  %5 = load ptr, ptr %3, align 8
  %6 = load i32, ptr %4, align 4, !tbaa !27
  %7 = call noundef i32 @_ZN10bit_vector12get_pos_maskEj(i32 noundef %6)
  %8 = load i32, ptr %4, align 4, !tbaa !27
  %9 = call noundef nonnull align 4 dereferenceable(4) ptr @_ZN10bit_vector12get_bit_wordEj(ptr noundef nonnull align 8 dereferenceable(16) %5, i32 noundef %8)
  %10 = load i32, ptr %9, align 4, !tbaa !27
  %11 = or i32 %10, %7
  store i32 %11, ptr %9, align 4, !tbaa !27
  ret void
}

; Function Attrs: mustprogress nounwind uwtable
define linkonce_odr hidden noundef i32 @_ZNK6vectorIPN3mbp4termELb0EjE4sizeEv(ptr noundef nonnull align 8 dereferenceable(8) %0) #6 comdat align 2 {
  %2 = alloca i32, align 4
  %3 = alloca ptr, align 8
  store ptr %0, ptr %3, align 8, !tbaa !42
  %4 = load ptr, ptr %3, align 8
  %5 = getelementptr inbounds nuw %class.vector, ptr %4, i32 0, i32 0
  %6 = load ptr, ptr %5, align 8, !tbaa !44
  %7 = icmp eq ptr %6, null
  br i1 %7, label %8, label %9

8:                                                ; preds = %1
  store i32 0, ptr %2, align 4
  br label %14

9:                                                ; preds = %1
  %10 = getelementptr inbounds nuw %class.vector, ptr %4, i32 0, i32 0
  %11 = load ptr, ptr %10, align 8, !tbaa !44
  %12 = getelementptr inbounds i32, ptr %11, i64 -1
  %13 = load i32, ptr %12, align 4, !tbaa !27
  store i32 %13, ptr %2, align 4
  br label %14

14:                                               ; preds = %9, %8
  %15 = load i32, ptr %2, align 4
  ret i32 %15
}

; Function Attrs: mustprogress uwtable
define linkonce_odr hidden void @_ZN3mbp4term7set_deqER10bit_vectorj(ptr noundef nonnull align 8 dereferenceable(16) %0, i32 noundef %1) #4 comdat align 2 {
  %3 = alloca ptr, align 8
  %4 = alloca i32, align 4
  store ptr %0, ptr %3, align 8, !tbaa !25
  store i32 %1, ptr %4, align 4, !tbaa !27
  %5 = load ptr, ptr %3, align 8, !tbaa !25
  %6 = load i32, ptr %4, align 4, !tbaa !27
  %7 = add i32 %6, 1
  call void @_ZN10bit_vector6resizeEjb(ptr noundef nonnull align 8 dereferenceable(16) %5, i32 noundef %7, i1 noundef zeroext false)
  %8 = load ptr, ptr %3, align 8, !tbaa !25
  %9 = load i32, ptr %4, align 4, !tbaa !27
  call void @_ZN10bit_vector3setEj(ptr noundef nonnull align 8 dereferenceable(16) %8, i32 noundef %9)
  ret void
}

; Function Attrs: mustprogress nounwind uwtable
define linkonce_odr hidden noundef nonnull align 8 dereferenceable(16) ptr @_ZN3mbp4term8get_deqsEv(ptr noundef nonnull align 8 dereferenceable(88) %0) #6 comdat align 2 {
  %2 = alloca ptr, align 8
  store ptr %0, ptr %2, align 8, !tbaa !20
  %3 = load ptr, ptr %2, align 8
  %4 = getelementptr inbounds nuw %"class.mbp::term", ptr %3, i32 0, i32 7
  %5 = getelementptr inbounds nuw %"struct.mbp::term::class_props", ptr %4, i32 0, i32 2
  ret ptr %5
}

; Function Attrs: mustprogress nounwind uwtable
define linkonce_odr hidden noundef nonnull align 8 dereferenceable(88) ptr @_ZNK3mbp4term8get_rootEv(ptr noundef nonnull align 8 dereferenceable(88) %0) #6 comdat align 2 {
  %2 = alloca ptr, align 8
  store ptr %0, ptr %2, align 8, !tbaa !20
  %3 = load ptr, ptr %2, align 8
  %4 = getelementptr inbounds nuw %"class.mbp::term", ptr %3, i32 0, i32 1
  %5 = load ptr, ptr %4, align 8, !tbaa !28
  ret ptr %5
}

; Function Attrs: mustprogress nounwind uwtable
define linkonce_odr hidden noundef ptr @_ZN6vectorIPN3mbp4termELb0EjE3endEv(ptr noundef nonnull align 8 dereferenceable(8) %0) #6 comdat align 2 {
  %2 = alloca ptr, align 8
  store ptr %0, ptr %2, align 8, !tbaa !42
  %3 = load ptr, ptr %2, align 8
  %4 = getelementptr inbounds nuw %class.vector, ptr %3, i32 0, i32 0
  %5 = load ptr, ptr %4, align 8, !tbaa !44
  %6 = call noundef i32 @_ZNK6vectorIPN3mbp4termELb0EjE4sizeEv(ptr noundef nonnull align 8 dereferenceable(8) %3)
  %7 = zext i32 %6 to i64
  %8 = getelementptr inbounds nuw ptr, ptr %5, i64 %7
  ret ptr %8
}

; Function Attrs: mustprogress nounwind uwtable
define linkonce_odr hidden noundef ptr @_ZN6vectorIPN3mbp4termELb0EjE5beginEv(ptr noundef nonnull align 8 dereferenceable(8) %0) #6 comdat align 2 {
  %2 = alloca ptr, align 8
  store ptr %0, ptr %2, align 8, !tbaa !42
  %3 = load ptr, ptr %2, align 8
  %4 = getelementptr inbounds nuw %class.vector, ptr %3, i32 0, i32 0
  %5 = load ptr, ptr %4, align 8, !tbaa !44
  ret ptr %5
}

; Function Attrs: mustprogress uwtable
define hidden void @_ZN3mbp10term_graph12add_deq_procclER10ptr_vectorINS_4termEE(ptr noundef nonnull align 4 dereferenceable(4) %0, ptr noundef nonnull align 8 dereferenceable(8) %1) #4 align 2 {
  %3 = alloca ptr, align 8
  %4 = alloca ptr, align 8
  %5 = alloca ptr, align 8
  %6 = alloca ptr, align 8
  %7 = alloca ptr, align 8
  %8 = alloca ptr, align 8
  store ptr %0, ptr %3, align 8, !tbaa !18
  store ptr %1, ptr %4, align 8, !tbaa !39
  %9 = load ptr, ptr %3, align 8
  call void @llvm.lifetime.start.p0(i64 8, ptr %5) #3
  %10 = load ptr, ptr %4, align 8, !tbaa !39
  store ptr %10, ptr %5, align 8, !tbaa !39
  call void @llvm.lifetime.start.p0(i64 8, ptr %6) #3
  %11 = load ptr, ptr %5, align 8, !tbaa !39
  %12 = call noundef ptr @_ZN6vectorIPN3mbp4termELb0EjE5beginEv(ptr noundef nonnull align 8 dereferenceable(8) %11)
  store ptr %12, ptr %6, align 8, !tbaa !41
  call void @llvm.lifetime.start.p0(i64 8, ptr %7) #3
  %13 = load ptr, ptr %5, align 8, !tbaa !39
  %14 = call noundef ptr @_ZN6vectorIPN3mbp4termELb0EjE3endEv(ptr noundef nonnull align 8 dereferenceable(8) %13)
  store ptr %14, ptr %7, align 8, !tbaa !41
  br label %15

15:                                               ; preds = %28, %2
  %16 = load ptr, ptr %6, align 8, !tbaa !41
  %17 = load ptr, ptr %7, align 8, !tbaa !41
  %18 = icmp ne ptr %16, %17
  br i1 %18, label %20, label %19

19:                                               ; preds = %15
  call void @llvm.lifetime.end.p0(i64 8, ptr %7) #3
  call void @llvm.lifetime.end.p0(i64 8, ptr %6) #3
  call void @llvm.lifetime.end.p0(i64 8, ptr %5) #3
  br label %31

20:                                               ; preds = %15
  call void @llvm.lifetime.start.p0(i64 8, ptr %8) #3
  %21 = load ptr, ptr %6, align 8, !tbaa !41
  %22 = load ptr, ptr %21, align 8, !tbaa !20
  store ptr %22, ptr %8, align 8, !tbaa !20
  %23 = load ptr, ptr %8, align 8, !tbaa !20
  %24 = call noundef nonnull align 8 dereferenceable(88) ptr @_ZNK3mbp4term8get_rootEv(ptr noundef nonnull align 8 dereferenceable(88) %23)
  %25 = call noundef nonnull align 8 dereferenceable(16) ptr @_ZN3mbp4term8get_deqsEv(ptr noundef nonnull align 8 dereferenceable(88) %24)
  %26 = getelementptr inbounds nuw %"struct.mbp::term_graph::add_deq_proc", ptr %9, i32 0, i32 0
  %27 = load i32, ptr %26, align 4, !tbaa !22
  call void @_ZN3mbp4term7set_deqER10bit_vectorj(ptr noundef nonnull align 8 dereferenceable(16) %25, i32 noundef %27)
  call void @llvm.lifetime.end.p0(i64 8, ptr %8) #3
  br label %28

28:                                               ; preds = %20
  %29 = load ptr, ptr %6, align 8, !tbaa !41
  %30 = getelementptr inbounds nuw ptr, ptr %29, i32 1
  store ptr %30, ptr %6, align 8, !tbaa !41
  br label %15

31:                                               ; preds = %19
  call void @_ZN3mbp10term_graph12add_deq_proc9inc_countEv(ptr noundef nonnull align 4 dereferenceable(4) %9)
  ret void
}