; Function Attrs: mustprogress uwtable
define hidden void @_ZN3mbp10term_graph12add_deq_procclER10ptr_vectorINS_4termEE(ptr noundef nonnull align 4 captures(none) dereferenceable(4) %0, ptr noundef nonnull readonly align 8 captures(none) dereferenceable(8) %1) local_unnamed_addr #3 align 2 {
  %3 = load ptr, ptr %1, align 8, !tbaa !45
  %4 = icmp eq ptr %3, null
  br i1 %4, label %._crit_edge, label %_ZN6vectorIPN3mbp4termELb0EjE3endEv.exit

_ZN6vectorIPN3mbp4termELb0EjE3endEv.exit:         ; preds = %2
  %5 = getelementptr inbounds i8, ptr %3, i64 -4
  %6 = load i32, ptr %5, align 4, !tbaa !34
  %7 = zext i32 %6 to i64
  %8 = getelementptr inbounds nuw ptr, ptr %3, i64 %7
  %.not9 = icmp eq i32 %6, 0
  br i1 %.not9, label %._crit_edge, label %.lr.ph

._crit_edge:                                      ; preds = %.lr.ph, %2, %_ZN6vectorIPN3mbp4termELb0EjE3endEv.exit
  tail call void @_ZN3mbp10term_graph12add_deq_proc9inc_countEv(ptr noundef nonnull align 4 dereferenceable(4) %0)
  ret void

.lr.ph:                                           ; preds = %_ZN6vectorIPN3mbp4termELb0EjE3endEv.exit, %.lr.ph
  %.010 = phi ptr [ %24, %.lr.ph ], [ %3, %_ZN6vectorIPN3mbp4termELb0EjE3endEv.exit ]
  %9 = load ptr, ptr %.010, align 8, !tbaa !46
  %10 = getelementptr inbounds nuw i8, ptr %9, i64 16
  %11 = load ptr, ptr %10, align 8, !tbaa !19
  %12 = getelementptr inbounds nuw i8, ptr %11, i64 72
  %13 = load i32, ptr %0, align 4, !tbaa !31
  %14 = add i32 %13, 1
  tail call void @_ZN10bit_vector6resizeEjb(ptr noundef nonnull align 8 dereferenceable(16) %12, i32 noundef %14, i1 noundef zeroext false)
  %15 = and i32 %13, 31
  %16 = shl nuw i32 1, %15
  %17 = getelementptr inbounds nuw i8, ptr %11, i64 80
  %18 = load ptr, ptr %17, align 8, !tbaa !33
  %19 = lshr i32 %13, 5
  %20 = zext nneg i32 %19 to i64
  %21 = getelementptr inbounds nuw i32, ptr %18, i64 %20
  %22 = load i32, ptr %21, align 4, !tbaa !34
  %23 = or i32 %22, %16
  store i32 %23, ptr %21, align 4, !tbaa !34
  %24 = getelementptr inbounds nuw i8, ptr %.010, i64 8
  %.not = icmp eq ptr %24, %8
  br i1 %.not, label %._crit_edge, label %.lr.ph
}